; Function Attrs: nounwind uwtable
define ptr @l_Lean_Server_FileWorker_handleDocumentSymbol___rarg(ptr noundef %0, ptr noundef %1) #0 {
  %3 = tail call ptr @l_Lean_Server_RequestM_readDoc___at_Lean_Server_RequestM_withWaitFindSnapAtPos___spec__1(ptr noundef %0, ptr noundef %1) #8
  %4 = getelementptr inbounds nuw i8, ptr %3, i64 8
  %5 = load ptr, ptr %4, align 8, !tbaa !10
  %6 = ptrtoint ptr %5 to i64
  %7 = and i64 %6, 1
  %.not = icmp eq i64 %7, 0
  br i1 %.not, label %8, label %lean_inc.exit24

8:                                                ; preds = %2
  %.val.i = load i32, ptr %5, align 4, !tbaa !4
  %9 = icmp sgt i32 %.val.i, 0
  br i1 %9, label %10, label %12, !prof !9

10:                                               ; preds = %8
  %11 = add nuw i32 %.val.i, 1
  store i32 %11, ptr %5, align 4, !tbaa !4
  br label %lean_inc.exit24

12:                                               ; preds = %8
  %.not.i27 = icmp eq i32 %.val.i, 0
  br i1 %.not.i27, label %lean_inc.exit24, label %13

13:                                               ; preds = %12
  tail call void @lean_inc_ref_cold(ptr noundef nonnull %5) #8
  br label %lean_inc.exit24

lean_inc.exit24:                                  ; preds = %13, %12, %10, %2
  %14 = getelementptr inbounds nuw i8, ptr %3, i64 16
  %15 = load ptr, ptr %14, align 8, !tbaa !10
  %16 = ptrtoint ptr %15 to i64
  %17 = and i64 %16, 1
  %.not37 = icmp eq i64 %17, 0
  br i1 %.not37, label %18, label %lean_inc.exit23

18:                                               ; preds = %lean_inc.exit24
  %.val.i28 = load i32, ptr %15, align 4, !tbaa !4
  %19 = icmp sgt i32 %.val.i28, 0
  br i1 %19, label %20, label %22, !prof !9

20:                                               ; preds = %18
  %21 = add nuw i32 %.val.i28, 1
  store i32 %21, ptr %15, align 4, !tbaa !4
  br label %lean_inc.exit23

22:                                               ; preds = %18
  %.not.i29 = icmp eq i32 %.val.i28, 0
  br i1 %.not.i29, label %lean_inc.exit23, label %23

23:                                               ; preds = %22
  tail call void @lean_inc_ref_cold(ptr noundef nonnull %15) #8
  br label %lean_inc.exit23

lean_inc.exit23:                                  ; preds = %23, %22, %20, %lean_inc.exit24
  %24 = ptrtoint ptr %3 to i64
  %25 = and i64 %24, 1
  %.not38 = icmp eq i64 %25, 0
  br i1 %.not38, label %26, label %lean_dec.exit21

26:                                               ; preds = %lean_inc.exit23
  %27 = load i32, ptr %3, align 4, !tbaa !4
  %28 = icmp sgt i32 %27, 1
  br i1 %28, label %29, label %31, !prof !9

29:                                               ; preds = %26
  %30 = add nsw i32 %27, -1
  store i32 %30, ptr %3, align 4, !tbaa !4
  br label %lean_dec.exit21

31:                                               ; preds = %26
  %.not.i = icmp eq i32 %27, 0
  br i1 %.not.i, label %lean_dec.exit21, label %32

32:                                               ; preds = %31
  tail call void @lean_dec_ref_cold(ptr noundef nonnull %3) #8
  br label %lean_dec.exit21

lean_dec.exit21:                                  ; preds = %32, %31, %29, %lean_inc.exit23
  %33 = getelementptr inbounds nuw i8, ptr %5, i64 8
  %34 = load ptr, ptr %33, align 8, !tbaa !10
  %35 = ptrtoint ptr %34 to i64
  %36 = and i64 %35, 1
  %.not39 = icmp eq i64 %36, 0
  br i1 %.not39, label %37, label %lean_inc.exit22

37:                                               ; preds = %lean_dec.exit21
  %.val.i31 = load i32, ptr %34, align 4, !tbaa !4
  %38 = icmp sgt i32 %.val.i31, 0
  br i1 %38, label %39, label %41, !prof !9

39:                                               ; preds = %37
  %40 = add nuw i32 %.val.i31, 1
  store i32 %40, ptr %34, align 4, !tbaa !4
  br label %lean_inc.exit22

41:                                               ; preds = %37
  %.not.i32 = icmp eq i32 %.val.i31, 0
  br i1 %.not.i32, label %lean_inc.exit22, label %42

42:                                               ; preds = %41
  tail call void @lean_inc_ref_cold(ptr noundef nonnull %34) #8
  br label %lean_inc.exit22

lean_inc.exit22:                                  ; preds = %42, %41, %39, %lean_dec.exit21
  br i1 %.not, label %43, label %lean_dec.exit

43:                                               ; preds = %lean_inc.exit22
  %44 = load i32, ptr %5, align 4, !tbaa !4
  %45 = icmp sgt i32 %44, 1
  br i1 %45, label %46, label %48, !prof !9

46:                                               ; preds = %43
  %47 = add nsw i32 %44, -1
  store i32 %47, ptr %5, align 4, !tbaa !4
  br label %lean_dec.exit

48:                                               ; preds = %43
  %.not.i25 = icmp eq i32 %44, 0
  br i1 %.not.i25, label %lean_dec.exit, label %49

49:                                               ; preds = %48
  tail call void @lean_dec_ref_cold(ptr noundef nonnull %5) #8
  br label %lean_dec.exit

lean_dec.exit:                                    ; preds = %49, %48, %46, %lean_inc.exit22
  %50 = getelementptr inbounds nuw i8, ptr %34, i64 24
  %51 = load ptr, ptr %50, align 8, !tbaa !10
  %52 = ptrtoint ptr %51 to i64
  %53 = and i64 %52, 1
  %.not40 = icmp eq i64 %53, 0
  br i1 %.not40, label %54, label %lean_inc.exit

54:                                               ; preds = %lean_dec.exit
  %.val.i34 = load i32, ptr %51, align 4, !tbaa !4
  %55 = icmp sgt i32 %.val.i34, 0
  br i1 %55, label %56, label %58, !prof !9

56:                                               ; preds = %54
  %57 = add nuw i32 %.val.i34, 1
  store i32 %57, ptr %51, align 4, !tbaa !4
  br label %lean_inc.exit

58:                                               ; preds = %54
  %.not.i35 = icmp eq i32 %.val.i34, 0
  br i1 %.not.i35, label %lean_inc.exit, label %59

59:                                               ; preds = %58
  tail call void @lean_inc_ref_cold(ptr noundef nonnull %51) #8
  br label %lean_inc.exit

lean_inc.exit:                                    ; preds = %59, %58, %56, %lean_dec.exit
  %60 = load ptr, ptr @l_Lean_Server_FileWorker_handleDocumentSymbol___rarg___closed__1, align 8, !tbaa !10
  %61 = tail call ptr @l_IO_AsyncList_waitUntil___rarg(ptr noundef %60, ptr noundef %51) #8
  tail call void @lean_inc_heartbeat() #8
  %62 = tail call noalias ptr @mi_malloc_small(i64 noundef 32) #8
  %63 = icmp eq ptr %62, null
  br i1 %63, label %64, label %lean_alloc_closure.exit

64:                                               ; preds = %lean_inc.exit
  tail call void @lean_internal_panic_out_of_memory() #9
  unreachable

lean_alloc_closure.exit:                          ; preds = %lean_inc.exit
  %65 = getelementptr inbounds nuw i8, ptr %62, i64 4
  store i32 1, ptr %62, align 4, !tbaa !4
  store i32 -184549344, ptr %65, align 4
  %66 = getelementptr inbounds nuw i8, ptr %62, i64 8
  store ptr @l_Lean_Server_FileWorker_handleDocumentSymbol___rarg___lambda__1___boxed, ptr %66, align 8, !tbaa !10
  %67 = getelementptr inbounds nuw i8, ptr %62, i64 16
  store i16 4, ptr %67, align 8, !tbaa !14
  %68 = getelementptr inbounds nuw i8, ptr %62, i64 18
  store i16 1, ptr %68, align 2, !tbaa !14
  %69 = getelementptr inbounds nuw i8, ptr %62, i64 24
  store ptr %34, ptr %69, align 8, !tbaa !10
  %70 = tail call ptr @l_Lean_Server_RequestM_mapTaskCostly___rarg(ptr noundef %61, ptr noundef nonnull %62, ptr noundef %0, ptr noundef %15) #8
  ret ptr %70
}